; Function Attrs: inlinehint mustprogress nounwind uwtable
define internal fastcc noundef ptr @_ZL16Gia_ManAppendObjP10Gia_Man_t_(ptr noundef captures(none) %0) unnamed_addr #6 {
  %2 = getelementptr inbounds nuw i8, ptr %0, i64 24
  %3 = load i32, ptr %2, align 8, !tbaa !77
  %4 = getelementptr inbounds nuw i8, ptr %0, i64 28
  %5 = load i32, ptr %4, align 4, !tbaa !78
  %6 = icmp eq i32 %3, %5
  br i1 %6, label %7, label %47

7:                                                ; preds = %1
  %8 = shl nsw i32 %3, 1
  %9 = tail call noundef range(i32 -2147483648, 536870913) i32 @llvm.smin.i32(i32 %8, i32 536870912)
  %10 = icmp eq i32 %3, 536870912
  br i1 %10, label %11, label %12

11:                                               ; preds = %7
  %puts = tail call i32 @puts(ptr nonnull dereferenceable(1) @str)
  tail call void @exit(i32 noundef 1) #25
  unreachable

12:                                               ; preds = %7
  %13 = getelementptr inbounds nuw i8, ptr %0, i64 796
  %14 = load i32, ptr %13, align 4, !tbaa !79
  %.not = icmp eq i32 %14, 0
  br i1 %.not, label %17, label %15

15:                                               ; preds = %12
  %16 = tail call i32 (ptr, ...) @printf(ptr noundef nonnull dereferenceable(1) @.str.19, i32 noundef %3, i32 noundef %9)
  br label %17

17:                                               ; preds = %15, %12
  %18 = getelementptr inbounds nuw i8, ptr %0, i64 32
  %19 = load ptr, ptr %18, align 8, !tbaa !63
  %.not33 = icmp eq ptr %19, null
  %20 = sext i32 %9 to i64
  %21 = mul nsw i64 %20, 12
  br i1 %.not33, label %24, label %22

22:                                               ; preds = %17
  %23 = tail call ptr @realloc(ptr noundef nonnull %19, i64 noundef %21) #22
  br label %26

24:                                               ; preds = %17
  %25 = tail call noalias ptr @malloc(i64 noundef %21) #23
  br label %26

26:                                               ; preds = %24, %22
  %27 = phi ptr [ %23, %22 ], [ %25, %24 ]
  store ptr %27, ptr %18, align 8, !tbaa !63
  %28 = load i32, ptr %4, align 4, !tbaa !78
  %29 = sext i32 %28 to i64
  %30 = getelementptr inbounds %struct.Gia_Obj_t_, ptr %27, i64 %29
  %31 = sub nsw i32 %9, %28
  %32 = sext i32 %31 to i64
  %33 = mul nsw i64 %32, 12
  tail call void @llvm.memset.p0.i64(ptr align 4 %30, i8 0, i64 %33, i1 false)
  %34 = getelementptr inbounds nuw i8, ptr %0, i64 40
  %35 = load ptr, ptr %34, align 8, !tbaa !80
  %.not34 = icmp eq ptr %35, null
  br i1 %.not34, label %46, label %36

36:                                               ; preds = %26
  %37 = sext i32 %9 to i64
  %38 = shl nsw i64 %37, 2
  %39 = tail call ptr @realloc(ptr noundef nonnull %35, i64 noundef %38) #22
  store ptr %39, ptr %34, align 8, !tbaa !80
  %40 = load i32, ptr %4, align 4, !tbaa !78
  %41 = sext i32 %40 to i64
  %42 = getelementptr inbounds i32, ptr %39, i64 %41
  %43 = sub nsw i32 %9, %40
  %44 = sext i32 %43 to i64
  %45 = shl nsw i64 %44, 2
  tail call void @llvm.memset.p0.i64(ptr align 4 %42, i8 0, i64 %45, i1 false)
  br label %46

46:                                               ; preds = %36, %26
  store i32 %9, ptr %4, align 4, !tbaa !78
  br label %47

47:                                               ; preds = %46, %1
  %48 = getelementptr i8, ptr %0, i64 100
  %.val = load i32, ptr %48, align 4, !tbaa !59
  %.not35 = icmp eq i32 %.val, 0
  br i1 %.not35, label %82, label %49

49:                                               ; preds = %47
  %50 = getelementptr inbounds nuw i8, ptr %0, i64 80
  %51 = getelementptr inbounds nuw i8, ptr %0, i64 84
  %52 = load i32, ptr %51, align 4, !tbaa !59
  %53 = load i32, ptr %50, align 8, !tbaa !64
  %54 = icmp eq i32 %52, %53
  br i1 %54, label %55, label %._ZL11Vec_IntGrowP10Vec_Int_t_i.exit10_crit_edge.i

._ZL11Vec_IntGrowP10Vec_Int_t_i.exit10_crit_edge.i: ; preds = %49
  %.phi.trans.insert.i = getelementptr inbounds nuw i8, ptr %0, i64 88
  %.pre.i = load ptr, ptr %.phi.trans.insert.i, align 8, !tbaa !65
  br label %_ZL11Vec_IntPushP10Vec_Int_t_i.exit

55:                                               ; preds = %49
  %56 = icmp slt i32 %52, 16
  br i1 %56, label %57, label %65

57:                                               ; preds = %55
  %58 = getelementptr inbounds nuw i8, ptr %0, i64 88
  %59 = load ptr, ptr %58, align 8, !tbaa !65
  %.not9.i.i = icmp eq ptr %59, null
  br i1 %.not9.i.i, label %62, label %60

60:                                               ; preds = %57
  %61 = tail call dereferenceable_or_null(64) ptr @realloc(ptr noundef nonnull %59, i64 noundef 64) #22
  br label %_ZL11Vec_IntGrowP10Vec_Int_t_i.exit.i

62:                                               ; preds = %57
  %63 = tail call noalias dereferenceable_or_null(64) ptr @malloc(i64 noundef 64) #23
  br label %_ZL11Vec_IntGrowP10Vec_Int_t_i.exit.i

_ZL11Vec_IntGrowP10Vec_Int_t_i.exit.i:            ; preds = %62, %60
  %64 = phi ptr [ %61, %60 ], [ %63, %62 ]
  store ptr %64, ptr %58, align 8, !tbaa !65
  store i32 16, ptr %50, align 8, !tbaa !64
  br label %_ZL11Vec_IntPushP10Vec_Int_t_i.exit

65:                                               ; preds = %55
  %66 = shl nuw nsw i32 %52, 1
  %67 = getelementptr inbounds nuw i8, ptr %0, i64 88
  %68 = load ptr, ptr %67, align 8, !tbaa !65
  %.not9.i9.i = icmp eq ptr %68, null
  %69 = zext nneg i32 %66 to i64
  %70 = shl nuw nsw i64 %69, 2
  br i1 %.not9.i9.i, label %73, label %71

71:                                               ; preds = %65
  %72 = tail call ptr @realloc(ptr noundef nonnull %68, i64 noundef %70) #22
  br label %75

73:                                               ; preds = %65
  %74 = tail call noalias ptr @malloc(i64 noundef %70) #23
  br label %75

75:                                               ; preds = %73, %71
  %76 = phi ptr [ %72, %71 ], [ %74, %73 ]
  store ptr %76, ptr %67, align 8, !tbaa !65
  store i32 %66, ptr %50, align 8, !tbaa !64
  br label %_ZL11Vec_IntPushP10Vec_Int_t_i.exit

_ZL11Vec_IntPushP10Vec_Int_t_i.exit:              ; preds = %._ZL11Vec_IntGrowP10Vec_Int_t_i.exit10_crit_edge.i, %_ZL11Vec_IntGrowP10Vec_Int_t_i.exit.i, %75
  %77 = phi ptr [ %.pre.i, %._ZL11Vec_IntGrowP10Vec_Int_t_i.exit10_crit_edge.i ], [ %76, %75 ], [ %64, %_ZL11Vec_IntGrowP10Vec_Int_t_i.exit.i ]
  %78 = load i32, ptr %51, align 4, !tbaa !59
  %79 = add nsw i32 %78, 1
  store i32 %79, ptr %51, align 4, !tbaa !59
  %80 = sext i32 %78 to i64
  %81 = getelementptr inbounds i32, ptr %77, i64 %80
  store i32 0, ptr %81, align 4, !tbaa !60
  br label %82

82:                                               ; preds = %_ZL11Vec_IntPushP10Vec_Int_t_i.exit, %47
  %83 = load i32, ptr %2, align 8, !tbaa !77
  %84 = add nsw i32 %83, 1
  store i32 %84, ptr %2, align 8, !tbaa !77
  %85 = getelementptr i8, ptr %0, i64 32
  %.val36 = load ptr, ptr %85, align 8, !tbaa !63
  %86 = sext i32 %83 to i64
  %87 = getelementptr inbounds %struct.Gia_Obj_t_, ptr %.val36, i64 %86
  ret ptr %87
}